; Function Attrs: mustprogress uwtable
define dso_local noundef zeroext i1 @_ZN4Luau7CodeGen3X6418AssemblyBuilderX648finalizeEv(ptr noundef nonnull align 8 dereferenceable(252) %0) local_unnamed_addr #0 align 2 {
  %2 = getelementptr inbounds nuw i8, ptr %0, i64 24
  %3 = getelementptr inbounds nuw i8, ptr %0, i64 232
  %4 = load ptr, ptr %3, align 8, !tbaa !51
  %5 = load ptr, ptr %2, align 8, !tbaa !49
  %6 = ptrtoint ptr %4 to i64
  %7 = ptrtoint ptr %5 to i64
  %8 = sub i64 %6, %7
  tail call void @_ZNSt6vectorIhSaIhEE6resizeEm(ptr noundef nonnull align 8 dereferenceable(24) %2, i64 noundef %8)
  %9 = getelementptr inbounds nuw i8, ptr %0, i64 96
  %10 = load ptr, ptr %9, align 8, !tbaa !83
  %11 = getelementptr inbounds nuw i8, ptr %0, i64 104
  %12 = load ptr, ptr %11, align 8, !tbaa !83
  %.not1011 = icmp eq ptr %10, %12
  br i1 %.not1011, label %._crit_edge, label %.lr.ph

.lr.ph:                                           ; preds = %1
  %13 = getelementptr inbounds nuw i8, ptr %0, i64 120
  br label %23

._crit_edge:                                      ; preds = %23, %1
  %14 = getelementptr inbounds nuw i8, ptr %0, i64 8
  %15 = load ptr, ptr %14, align 8, !tbaa !48
  %16 = load ptr, ptr %0, align 8, !tbaa !49
  %17 = ptrtoint ptr %15 to i64
  %18 = ptrtoint ptr %16 to i64
  %19 = sub i64 %17, %18
  %20 = getelementptr inbounds nuw i8, ptr %0, i64 224
  %21 = load i64, ptr %20, align 8, !tbaa !50
  %22 = sub i64 %19, %21
  %.not = icmp eq i64 %19, %21
  br i1 %.not, label %36, label %34

23:                                               ; preds = %.lr.ph, %23
  %.sroa.07.012 = phi ptr [ %10, %.lr.ph ], [ %33, %23 ]
  %.sroa.0.0.copyload = load i32, ptr %.sroa.07.012, align 4, !tbaa !69
  %.sroa.4.0..sroa_idx = getelementptr inbounds nuw i8, ptr %.sroa.07.012, i64 4
  %.sroa.4.0.copyload = load i32, ptr %.sroa.4.0..sroa_idx, align 4, !tbaa !69
  %24 = add i32 %.sroa.0.0.copyload, -1
  %25 = zext i32 %24 to i64
  %26 = load ptr, ptr %13, align 8, !tbaa !55
  %27 = getelementptr inbounds nuw i32, ptr %26, i64 %25
  %28 = load i32, ptr %27, align 4, !tbaa !69
  %reass.sub = sub i32 %28, %.sroa.4.0.copyload
  %29 = add i32 %reass.sub, -4
  %30 = zext i32 %.sroa.4.0.copyload to i64
  %31 = load ptr, ptr %2, align 8, !tbaa !49
  %32 = getelementptr inbounds nuw i8, ptr %31, i64 %30
  store i32 %29, ptr %32, align 1
  %33 = getelementptr inbounds nuw i8, ptr %.sroa.07.012, i64 8
  %.not10 = icmp eq ptr %33, %12
  br i1 %.not10, label %._crit_edge, label %23

34:                                               ; preds = %._crit_edge
  %35 = getelementptr inbounds nuw i8, ptr %16, i64 %21
  tail call void @llvm.memmove.p0.p0.i64(ptr nonnull align 1 %16, ptr nonnull align 1 %35, i64 %22, i1 false)
  br label %36

36:                                               ; preds = %34, %._crit_edge
  tail call void @_ZNSt6vectorIhSaIhEE6resizeEm(ptr noundef nonnull align 8 dereferenceable(24) %0, i64 noundef %22)
  %37 = getelementptr inbounds nuw i8, ptr %0, i64 216
  store i8 1, ptr %37, align 8, !tbaa !47
  ret i1 true
}